target datalayout = "e-m:e-p270:32:32-p271:32:32-p272:64:64-i64:64-i128:128-f80:128-n8:16:32:64-S128"
target triple = "x86_64-pc-linux-gnu"

%struct.mi_commit_mask_s = type { [8 x i64] }

; Function Attrs: nounwind uwtable
define hidden i64 @_mi_commit_mask_committed_size(ptr noundef %0, i64 noundef %1) #0 {
  %3 = alloca ptr, align 8
  %4 = alloca i64, align 8
  %5 = alloca i64, align 8
  %6 = alloca i64, align 8
  %7 = alloca i64, align 8
  store ptr %0, ptr %3, align 8, !tbaa !3
  store i64 %1, ptr %4, align 8, !tbaa !8
  call void @llvm.lifetime.start.p0(i64 8, ptr %5) #8
  store i64 0, ptr %5, align 8, !tbaa !8
  call void @llvm.lifetime.start.p0(i64 8, ptr %6) #8
  store i64 0, ptr %6, align 8, !tbaa !8
  br label %8

8:                                                ; preds = %41, %2
  %9 = load i64, ptr %6, align 8, !tbaa !8
  %10 = icmp ult i64 %9, 8
  br i1 %10, label %12, label %11

11:                                               ; preds = %8
  call void @llvm.lifetime.end.p0(i64 8, ptr %6) #8
  br label %44

12:                                               ; preds = %8
  call void @llvm.lifetime.start.p0(i64 8, ptr %7) #8
  %13 = load ptr, ptr %3, align 8, !tbaa !3
  %14 = getelementptr inbounds nuw %struct.mi_commit_mask_s, ptr %13, i32 0, i32 0
  %15 = load i64, ptr %6, align 8, !tbaa !8
  %16 = getelementptr inbounds nuw [8 x i64], ptr %14, i64 0, i64 %15
  %17 = load i64, ptr %16, align 8, !tbaa !8
  store i64 %17, ptr %7, align 8, !tbaa !8
  %18 = load i64, ptr %7, align 8, !tbaa !8
  %19 = xor i64 %18, -1
  %20 = icmp eq i64 %19, 0
  br i1 %20, label %21, label %24

21:                                               ; preds = %12
  %22 = load i64, ptr %5, align 8, !tbaa !8
  %23 = add i64 %22, 64
  store i64 %23, ptr %5, align 8, !tbaa !8
  br label %40

24:                                               ; preds = %12
  br label %25

25:                                               ; preds = %36, %24
  %26 = load i64, ptr %7, align 8, !tbaa !8
  %27 = icmp ne i64 %26, 0
  br i1 %27, label %28, label %39

28:                                               ; preds = %25
  %29 = load i64, ptr %7, align 8, !tbaa !8
  %30 = and i64 %29, 1
  %31 = icmp ne i64 %30, 0
  br i1 %31, label %32, label %35

32:                                               ; preds = %28
  %33 = load i64, ptr %5, align 8, !tbaa !8
  %34 = add i64 %33, 1
  store i64 %34, ptr %5, align 8, !tbaa !8
  br label %35

35:                                               ; preds = %32, %28
  br label %36

36:                                               ; preds = %35
  %37 = load i64, ptr %7, align 8, !tbaa !8
  %38 = lshr i64 %37, 1
  store i64 %38, ptr %7, align 8, !tbaa !8
  br label %25, !llvm.loop !10

39:                                               ; preds = %25
  br label %40

40:                                               ; preds = %39, %21
  call void @llvm.lifetime.end.p0(i64 8, ptr %7) #8
  br label %41

41:                                               ; preds = %40
  %42 = load i64, ptr %6, align 8, !tbaa !8
  %43 = add i64 %42, 1
  store i64 %43, ptr %6, align 8, !tbaa !8
  br label %8, !llvm.loop !12

44:                                               ; preds = %11
  %45 = load i64, ptr %4, align 8, !tbaa !8
  %46 = udiv i64 %45, 512
  %47 = load i64, ptr %5, align 8, !tbaa !8
  %48 = mul i64 %46, %47
  call void @llvm.lifetime.end.p0(i64 8, ptr %5) #8
  ret i64 %48
}